(lp0
(lp1
(lp2
VPhoenix_SeanCaughlinsTheScartaglen
p3
aVHandel_TornamiAVagheggiar
p4
aVCroqueMadame_Oil
p5
aVMusicDelta_Britpop
p6
aVMusicDelta_LatinJazz
p7
aVMusicDelta_FreeJazz
p8
aVAvaLuna_Waterduct
p9
aVMusicDelta_Rock
p10
aVFamilyBand_Again
p11
aVTablaBreakbeatScience_PhaseTransition
p12
aVTablaBreakbeatScience_Vger
p13
aVMatthewEntwistle_TheArch
p14
aVMusicDelta_FusionJazz
p15
aVMatthewEntwistle_FairerHopes
p16
aVWolf_DieBekherte
p17
aVAlexanderRoss_VelvetCurtain
p18
aVMusicDelta_Vivaldi
p19
aVMatthewEntwistle_ImpressionsOfSaturn
p20
aVGrants_PunchDrunk
p21
aVPhoenix_ScotchMorris
p22
aVMozart_BesterJungling
p23
aVSchubert_Erstarrung
p24
aVJoelHelander_Definition
p25
aVPhoenix_ColliersDaughter
p26
aVClaraBerryAndWooldog_TheBadGuys
p27
aVTablaBreakbeatScience_CaptainSky
p28
aVClaraBerryAndWooldog_Boys
p29
aVTablaBreakbeatScience_Animoog
p30
aVMusicDelta_SpeedMetal
p31
aVSecretMountains_HighHorse
p32
aVMatthewEntwistle_AnEveningWithOliver
p33
aVTheSoSoGlos_Emergency
p34
aVMatthewEntwistle_DontYouEver
p35
aVKarimDouaidy_Yatora
p36
aVAimeeNorwich_Child
p37
aVNightPanther_Fire
p38
aVTablaBreakbeatScience_RockSteady
p39
aVMusicDelta_Shadows
p40
aVChrisJacoby_BoothShotLincoln
p41
aVFacesOnFilm_WaitingForGa
p42
aVMusicDelta_GriegTrolltog
p43
aVMusicDelta_Disco
p44
aVHopAlong_SisterCities
p45
aVTablaBreakbeatScience_MoodyPlucks
p46
aVBigTroubles_Phantom
p47
aVBrandonWebster_DontHearAThing
p48
aVTablaBreakbeatScience_Scorpio
p49
aVMusicDelta_Zeppelin
p50
aVMichaelKropf_AllGoodThings
p51
aVDebussy_LenfantProdigue
p52
aVMusicDelta_BebopJazz
p53
aVMatthewEntwistle_Lontano
p54
aVCelestialShore_DieForUs
p55
aVAlexanderRoss_GoodbyeBolero
p56
aVClaraBerryAndWooldog_Stella
p57
aVMusicDelta_Country1
p58
aVSweetLights_YouLetMeDown
p59
aVStevenClark_Bounty
p60
aVMusicDelta_Grunge
p61
aVAClassicEducation_NightOwl
p62
aVMusicDelta_Hendrix
p63
aVLizNelson_ImComingHome
p64
aVPhoenix_LarkOnTheStrandDrummondCastle
p65
aVChrisJacoby_PigsFoot
p66
aVMozart_DiesBildnis
p67
aVJoelHelander_ExcessiveResistancetoChange
p68
aVClaraBerryAndWooldog_WaltzForMyVictims
p69
aVSchumann_Mignon
p70
aVPhoenix_BrokenPledgeChicagoReel
p71
aVBrandonWebster_YesSirICanFly
p72
aVClaraBerryAndWooldog_AirTraffic
p73
aVMatthewEntwistle_TheFlaxenField
p74
aVKarimDouaidy_Hopscotch
p75
aVMusicDelta_SwingJazz
p76
aVTablaBreakbeatScience_MiloVsMongo
p77
aVCreepoid_OldTree
p78
aVMusicDelta_FunkJazz
p79
aVMusicDelta_CoolJazz
p80
aVPhoenix_ElzicsFarewell
p81
aVJoelHelander_IntheAtticBedroom
p82
aVAimeeNorwich_Flying
p83
aVCroqueMadame_Pilot
p84
aVTablaBreakbeatScience_WhoIsIt
p85
aVMusicDelta_Rockabilly
p86
aa(lp87
VHezekiahJones_BorrowedHeart
p88
aVMeaxic_TakeAStep
p89
aVHeladoNegro_MitadDelMundo
p90
aVMeaxic_YouListen
p91
aVAuctioneer_OurFutureFaces
p92
aVMusicDelta_80sRock
p93
aa(lp94
VTheDistricts_Vermont
p95
aVMusicDelta_Punk
p96
aVMusicDelta_ChineseJiangNan
p97
aVMusicDelta_ChineseDrama
p98
aVEthanHein_1930sSynthAndUprightBass
p99
aVMusicDelta_Reggae
p100
aVStrandOfOaks_Spacestation
p101
aVMusicDelta_Beatles
p102
aVAmarLal_Rest
p103
aVTheScarletBrand_LesFleursDuMal
p104
aVMusicDelta_Pachelbel
p105
aVMusicDelta_ChineseChaoZhou
p106
aVEthanHein_GirlOnABridge
p107
aVMusicDelta_Gospel
p108
aVLushlife_ToynbeeSuite
p109
aVMusicDelta_Beethoven
p110
aVPurlingHiss_Lolita
p111
aVLizNelson_Rainfall
p112
aVMusicDelta_ChineseHenan
p113
aVDreamersOfTheGhetto_HeavyLove
p114
aVMusicDelta_Country2
p115
aVMusicDelta_ChineseYaoZu
p116
aVMusicDelta_ChineseXinJing
p117
aVLizNelson_Coldwar
p118
aVAmarLal_SpringDay1
p119
aVPortStWillow_StayEven
p120
aVMusicDelta_InTheHalloftheMountainKing
p121
aVSnowmine_Curfews
p122
aVEthanHein_HarmonicaFigure
p123
aVInvisibleFamiliars_DisturbingWildlife
p124
aVMusicDelta_ModalJazz
p125
aVEthanHein_BluesForNofi
p126
aaa(lp127
(lp128
g3
ag5
ag6
ag96
ag8
ag9
ag11
ag12
ag13
ag99
ag15
ag18
ag100
ag101
ag88
ag102
ag22
ag104
ag26
ag27
ag105
ag28
ag29
ag30
ag107
ag31
ag32
ag34
ag89
ag36
ag37
ag39
ag40
ag90
ag41
ag42
ag43
ag108
ag44
ag91
ag46
ag47
ag48
ag49
ag109
ag110
ag111
ag92
ag50
ag51
ag55
ag56
ag57
ag114
ag58
ag115
ag59
ag60
ag62
ag63
ag64
ag65
ag66
ag120
ag69
ag71
ag72
ag73
ag75
ag76
ag93
ag77
ag121
ag122
ag78
ag79
ag80
ag123
ag81
ag124
ag83
ag125
ag84
ag126
ag85
ag86
aa(lp129
g4
ag17
ag23
ag24
ag112
ag52
ag118
ag67
ag70
aa(lp130
g95
ag7
ag97
ag10
ag14
ag98
ag16
ag19
ag20
ag21
ag103
ag25
ag106
ag33
ag35
ag38
ag45
ag113
ag53
ag54
ag116
ag117
ag61
ag119
ag68
ag74
ag82
aaa(lp131
(lp132
g95
ag5
ag6
ag96
ag7
ag97
ag10
ag12
ag13
ag14
ag98
ag99
ag16
ag18
ag19
ag100
ag20
ag88
ag102
ag103
ag104
ag27
ag105
ag28
ag29
ag106
ag30
ag107
ag31
ag32
ag33
ag34
ag89
ag35
ag36
ag39
ag40
ag90
ag41
ag42
ag108
ag91
ag46
ag47
ag48
ag49
ag110
ag111
ag92
ag112
ag113
ag53
ag54
ag55
ag56
ag57
ag58
ag115
ag116
ag60
ag117
ag118
ag119
ag63
ag64
ag66
ag120
ag69
ag72
ag73
ag74
ag75
ag76
ag93
ag77
ag121
ag122
ag79
ag80
ag123
ag124
ag125
ag84
ag126
ag85
aa(lp133
g15
ag101
ag37
ag43
ag44
ag45
ag109
ag62
ag78
ag83
ag86
aa(lp134
g3
ag4
ag8
ag9
ag11
ag17
ag21
ag22
ag23
ag24
ag25
ag26
ag38
ag50
ag51
ag52
ag114
ag59
ag61
ag65
ag67
ag68
ag70
ag71
ag81
ag82
aaa(lp135
(lp136
g95
ag4
ag5
ag6
ag96
ag8
ag9
ag10
ag11
ag12
ag13
ag15
ag17
ag18
ag88
ag103
ag104
ag23
ag24
ag27
ag105
ag28
ag29
ag30
ag31
ag32
ag89
ag36
ag37
ag39
ag40
ag90
ag41
ag42
ag43
ag44
ag91
ag45
ag46
ag47
ag48
ag49
ag109
ag110
ag111
ag50
ag51
ag112
ag52
ag53
ag56
ag57
ag114
ag115
ag59
ag60
ag118
ag119
ag63
ag64
ag66
ag67
ag120
ag69
ag70
ag72
ag73
ag75
ag93
ag77
ag121
ag78
ag79
ag80
ag124
ag83
ag84
ag85
ag86
aa(lp137
g3
ag7
ag97
ag98
ag22
ag26
ag106
ag92
ag113
ag116
ag117
ag61
ag62
ag65
ag71
ag76
ag122
ag81
aa(lp138
g14
ag99
ag16
ag19
ag100
ag101
ag20
ag21
ag102
ag25
ag107
ag33
ag34
ag35
ag38
ag108
ag54
ag55
ag58
ag68
ag74
ag123
ag82
ag125
ag126
aaa(lp139
(lp140
g3
ag4
ag6
ag9
ag11
ag12
ag13
ag14
ag99
ag15
ag16
ag17
ag18
ag19
ag101
ag20
ag88
ag22
ag104
ag23
ag24
ag25
ag26
ag27
ag105
ag28
ag29
ag30
ag107
ag33
ag34
ag89
ag35
ag36
ag37
ag39
ag44
ag91
ag46
ag48
ag49
ag109
ag110
ag111
ag52
ag53
ag54
ag56
ag57
ag62
ag65
ag67
ag68
ag69
ag70
ag71
ag72
ag73
ag74
ag75
ag93
ag77
ag122
ag79
ag80
ag123
ag81
ag124
ag82
ag83
ag126
ag85
aa(lp141
g7
ag21
ag31
ag32
ag90
ag92
ag112
ag114
ag58
ag118
ag61
ag63
ag64
ag76
ag121
ag78
aa(lp142
g95
ag5
ag96
ag8
ag97
ag10
ag98
ag100
ag102
ag103
ag106
ag38
ag40
ag41
ag42
ag43
ag108
ag45
ag47
ag50
ag51
ag113
ag55
ag115
ag59
ag116
ag60
ag117
ag119
ag66
ag120
ag125
ag84
ag86
aaa(lp143
(lp144
g3
ag95
ag4
ag5
ag6
ag8
ag9
ag97
ag11
ag12
ag13
ag98
ag99
ag17
ag18
ag100
ag101
ag21
ag88
ag102
ag22
ag103
ag104
ag23
ag24
ag25
ag26
ag105
ag28
ag106
ag30
ag107
ag31
ag32
ag34
ag89
ag36
ag39
ag40
ag90
ag42
ag43
ag108
ag44
ag91
ag45
ag46
ag47
ag48
ag49
ag109
ag110
ag111
ag92
ag50
ag51
ag52
ag113
ag53
ag55
ag56
ag114
ag115
ag116
ag117
ag61
ag62
ag119
ag63
ag65
ag67
ag68
ag70
ag71
ag75
ag93
ag77
ag121
ag122
ag78
ag123
ag81
ag124
ag82
ag125
ag84
ag126
ag85
ag86
aa(lp145
g96
ag7
ag19
ag38
ag41
ag112
ag58
ag118
ag64
ag66
ag76
ag80
aa(lp146
g10
ag14
ag15
ag16
ag20
ag27
ag29
ag33
ag35
ag37
ag54
ag57
ag59
ag60
ag120
ag69
ag72
ag73
ag74
ag79
ag83
aaa(lp147
(lp148
g3
ag95
ag4
ag5
ag6
ag96
ag7
ag8
ag9
ag97
ag11
ag12
ag13
ag98
ag99
ag15
ag17
ag18
ag19
ag100
ag21
ag88
ag22
ag104
ag23
ag24
ag25
ag26
ag27
ag28
ag29
ag106
ag30
ag107
ag31
ag32
ag34
ag38
ag39
ag40
ag42
ag108
ag44
ag45
ag46
ag48
ag49
ag109
ag110
ag92
ag51
ag52
ag113
ag53
ag55
ag56
ag57
ag114
ag58
ag116
ag60
ag117
ag61
ag62
ag63
ag64
ag65
ag67
ag68
ag120
ag69
ag70
ag71
ag72
ag73
ag76
ag93
ag77
ag121
ag122
ag78
ag79
ag80
ag123
ag81
ag82
ag125
ag84
ag126
ag85
ag86
aa(lp149
g10
ag101
ag89
ag37
ag90
ag91
ag47
ag111
ag50
ag112
ag118
ag83
aa(lp150
g14
ag16
ag20
ag102
ag103
ag105
ag33
ag35
ag36
ag41
ag43
ag54
ag115
ag59
ag119
ag66
ag74
ag75
ag124
aaa(lp151
(lp152
g3
ag5
ag6
ag96
ag7
ag8
ag10
ag11
ag12
ag13
ag14
ag15
ag16
ag19
ag100
ag101
ag20
ag21
ag88
ag102
ag22
ag103
ag104
ag25
ag26
ag27
ag28
ag29
ag30
ag31
ag32
ag33
ag34
ag89
ag35
ag36
ag37
ag38
ag39
ag40
ag41
ag42
ag43
ag91
ag46
ag47
ag49
ag110
ag92
ag54
ag55
ag57
ag114
ag58
ag115
ag60
ag61
ag62
ag119
ag63
ag65
ag66
ag68
ag120
ag69
ag71
ag72
ag73
ag74
ag75
ag93
ag77
ag122
ag78
ag81
ag82
ag83
ag125
ag84
ag85
aa(lp153
g97
ag98
ag18
ag106
ag90
ag111
ag51
ag113
ag56
ag59
ag116
ag117
ag64
ag121
ag80
aa(lp154
g95
ag4
ag9
ag99
ag17
ag23
ag24
ag105
ag107
ag108
ag44
ag45
ag48
ag109
ag50
ag112
ag52
ag53
ag118
ag67
ag70
ag76
ag79
ag123
ag124
ag126
ag86
aaa(lp155
(lp156
g4
ag5
ag96
ag7
ag10
ag12
ag13
ag14
ag15
ag16
ag17
ag18
ag19
ag20
ag21
ag23
ag24
ag25
ag27
ag105
ag28
ag29
ag30
ag33
ag34
ag89
ag35
ag36
ag37
ag39
ag90
ag91
ag46
ag47
ag48
ag49
ag109
ag92
ag52
ag54
ag55
ag56
ag57
ag114
ag58
ag115
ag59
ag60
ag62
ag64
ag67
ag68
ag120
ag69
ag70
ag73
ag74
ag75
ag93
ag77
ag121
ag122
ag78
ag80
ag82
ag83
ag84
ag85
ag86
aa(lp157
g95
ag8
ag9
ag101
ag88
ag102
ag103
ag104
ag31
ag32
ag38
ag40
ag110
ag51
ag53
ag61
ag119
ag63
aa(lp158
g3
ag6
ag97
ag11
ag98
ag99
ag100
ag22
ag26
ag106
ag107
ag41
ag42
ag43
ag108
ag44
ag45
ag111
ag50
ag112
ag113
ag116
ag117
ag118
ag65
ag66
ag71
ag72
ag76
ag79
ag123
ag81
ag124
ag125
ag126
aaa(lp159
(lp160
g3
ag95
ag4
ag5
ag96
ag7
ag8
ag10
ag11
ag12
ag13
ag15
ag17
ag18
ag19
ag100
ag101
ag21
ag88
ag102
ag22
ag103
ag104
ag23
ag24
ag25
ag26
ag27
ag105
ag28
ag29
ag30
ag31
ag36
ag37
ag38
ag39
ag40
ag90
ag41
ag43
ag108
ag46
ag47
ag48
ag49
ag109
ag110
ag111
ag92
ag50
ag51
ag52
ag53
ag55
ag56
ag57
ag115
ag59
ag60
ag119
ag63
ag65
ag66
ag67
ag68
ag120
ag69
ag70
ag71
ag72
ag73
ag75
ag77
ag78
ag79
ag81
ag82
ag83
ag125
ag84
ag85
ag86
aa(lp161
g97
ag98
ag106
ag34
ag89
ag44
ag91
ag112
ag113
ag58
ag116
ag117
ag118
ag64
ag93
ag80
ag124
aa(lp162
g6
ag9
ag14
ag99
ag16
ag20
ag107
ag32
ag33
ag35
ag42
ag45
ag54
ag114
ag61
ag62
ag74
ag76
ag121
ag122
ag123
ag126
aaa(lp163
(lp164
g95
ag4
ag5
ag7
ag8
ag9
ag10
ag11
ag12
ag13
ag14
ag99
ag16
ag17
ag18
ag20
ag21
ag88
ag103
ag23
ag24
ag105
ag28
ag30
ag107
ag31
ag32
ag33
ag34
ag89
ag35
ag39
ag40
ag90
ag41
ag42
ag43
ag91
ag45
ag46
ag47
ag48
ag49
ag110
ag111
ag112
ag52
ag54
ag55
ag56
ag114
ag58
ag118
ag61
ag62
ag119
ag63
ag64
ag66
ag67
ag120
ag70
ag72
ag74
ag77
ag121
ag122
ag80
ag123
ag125
ag84
ag126
ag85
ag86
aa(lp165
g3
ag6
ag96
ag15
ag19
ag22
ag104
ag26
ag36
ag53
ag60
ag65
ag71
ag75
ag76
ag93
ag81
aa(lp166
g97
ag98
ag100
ag101
ag102
ag25
ag27
ag29
ag106
ag37
ag38
ag108
ag44
ag109
ag92
ag50
ag51
ag113
ag57
ag115
ag59
ag116
ag117
ag68
ag69
ag73
ag78
ag79
ag124
ag82
ag83
aaa(lp167
(lp168
g3
ag95
ag4
ag5
ag6
ag8
ag9
ag97
ag11
ag12
ag13
ag98
ag99
ag15
ag17
ag19
ag100
ag101
ag21
ag88
ag22
ag103
ag23
ag24
ag26
ag27
ag105
ag28
ag29
ag106
ag30
ag107
ag31
ag32
ag89
ag36
ag37
ag39
ag40
ag90
ag41
ag42
ag44
ag91
ag45
ag46
ag48
ag49
ag111
ag50
ag51
ag112
ag52
ag113
ag57
ag114
ag58
ag59
ag116
ag60
ag117
ag118
ag61
ag119
ag65
ag66
ag67
ag120
ag69
ag70
ag71
ag72
ag73
ag75
ag76
ag93
ag77
ag121
ag78
ag79
ag123
ag81
ag83
ag125
ag84
ag126
ag85
aa(lp169
g14
ag16
ag20
ag33
ag35
ag54
ag74
ag122
ag86
aa(lp170
g96
ag7
ag10
ag18
ag102
ag104
ag25
ag34
ag38
ag43
ag108
ag47
ag109
ag110
ag92
ag53
ag55
ag56
ag115
ag62
ag63
ag64
ag68
ag80
ag124
ag82
aaa(lp171
(lp172
g3
ag95
ag6
ag96
ag7
ag97
ag12
ag13
ag14
ag98
ag99
ag15
ag16
ag18
ag19
ag101
ag20
ag21
ag88
ag102
ag22
ag25
ag26
ag27
ag105
ag28
ag29
ag106
ag30
ag107
ag31
ag32
ag33
ag89
ag35
ag37
ag38
ag39
ag40
ag42
ag43
ag108
ag91
ag45
ag46
ag47
ag48
ag49
ag109
ag111
ag50
ag51
ag113
ag54
ag56
ag57
ag58
ag115
ag116
ag60
ag117
ag65
ag68
ag120
ag69
ag71
ag72
ag73
ag74
ag76
ag77
ag78
ag80
ag123
ag81
ag82
ag83
ag125
ag126
ag85
ag86
aa(lp173
g5
ag9
ag10
ag41
ag44
ag114
ag59
ag62
ag66
ag93
ag121
ag84
aa(lp174
g4
ag8
ag11
ag17
ag100
ag103
ag104
ag23
ag24
ag34
ag36
ag90
ag110
ag92
ag112
ag52
ag53
ag55
ag118
ag61
ag119
ag63
ag64
ag67
ag70
ag75
ag122
ag79
ag124
aaa(lp175
(lp176
g3
ag95
ag4
ag5
ag6
ag7
ag97
ag11
ag12
ag13
ag14
ag98
ag15
ag16
ag17
ag18
ag19
ag101
ag20
ag88
ag102
ag22
ag103
ag23
ag24
ag26
ag27
ag105
ag28
ag29
ag106
ag30
ag31
ag33
ag34
ag35
ag36
ag37
ag39
ag90
ag42
ag43
ag46
ag47
ag49
ag111
ag92
ag51
ag52
ag113
ag54
ag55
ag56
ag57
ag114
ag58
ag115
ag116
ag60
ag117
ag119
ag63
ag65
ag67
ag120
ag69
ag70
ag71
ag72
ag73
ag74
ag75
ag93
ag77
ag121
ag78
ag80
ag81
ag83
ag84
ag85
aa(lp177
g100
ag21
ag25
ag32
ag89
ag38
ag44
ag91
ag48
ag68
ag82
aa(lp178
g96
ag8
ag9
ag10
ag99
ag104
ag107
ag40
ag41
ag108
ag45
ag109
ag110
ag50
ag112
ag53
ag59
ag118
ag61
ag62
ag64
ag66
ag76
ag122
ag79
ag123
ag124
ag125
ag126
ag86
aaa(lp179
(lp180
g3
ag5
ag6
ag96
ag8
ag97
ag10
ag12
ag13
ag14
ag98
ag99
ag16
ag18
ag100
ag20
ag88
ag22
ag103
ag25
ag26
ag28
ag106
ag30
ag107
ag31
ag32
ag33
ag34
ag89
ag35
ag36
ag37
ag38
ag39
ag40
ag90
ag41
ag42
ag43
ag108
ag44
ag91
ag46
ag47
ag49
ag110
ag111
ag92
ag50
ag112
ag113
ag53
ag54
ag55
ag56
ag116
ag60
ag117
ag118
ag61
ag119
ag63
ag65
ag66
ag68
ag71
ag74
ag75
ag93
ag77
ag121
ag122
ag78
ag79
ag123
ag81
ag82
ag83
ag125
ag84
ag126
ag85
ag86
aa(lp181
g21
ag104
ag27
ag29
ag48
ag51
ag57
ag114
ag64
ag69
ag73
ag76
aa(lp182
g95
ag4
ag7
ag9
ag11
ag15
ag17
ag19
ag101
ag102
ag23
ag24
ag105
ag45
ag109
ag52
ag58
ag115
ag59
ag62
ag67
ag120
ag70
ag72
ag80
ag124
aaa(lp183
(lp184
g5
ag6
ag7
ag9
ag97
ag10
ag11
ag12
ag13
ag14
ag98
ag15
ag16
ag18
ag100
ag101
ag20
ag21
ag88
ag102
ag103
ag25
ag105
ag28
ag106
ag30
ag31
ag32
ag33
ag34
ag89
ag35
ag36
ag38
ag39
ag90
ag41
ag42
ag44
ag91
ag46
ag47
ag48
ag49
ag109
ag50
ag51
ag112
ag113
ag54
ag56
ag114
ag115
ag59
ag116
ag117
ag118
ag61
ag62
ag119
ag63
ag66
ag68
ag72
ag74
ag75
ag76
ag77
ag121
ag122
ag78
ag80
ag82
ag125
ag84
ag85
ag86
aa(lp185
g3
ag22
ag104
ag26
ag108
ag45
ag111
ag60
ag65
ag71
ag93
ag81
ag124
aa(lp186
g95
ag4
ag96
ag8
ag99
ag17
ag19
ag23
ag24
ag27
ag29
ag107
ag37
ag40
ag43
ag110
ag92
ag52
ag53
ag55
ag57
ag58
ag64
ag67
ag120
ag69
ag70
ag73
ag79
ag123
ag83
ag126
aaa(lp187
(lp188
g3
ag95
ag4
ag5
ag8
ag97
ag10
ag11
ag12
ag13
ag14
ag98
ag15
ag16
ag17
ag18
ag101
ag20
ag21
ag88
ag102
ag22
ag103
ag23
ag24
ag26
ag28
ag106
ag30
ag31
ag33
ag34
ag35
ag36
ag37
ag38
ag39
ag90
ag43
ag108
ag46
ag49
ag109
ag110
ag111
ag92
ag112
ag52
ag113
ag54
ag55
ag56
ag58
ag59
ag116
ag117
ag118
ag61
ag62
ag119
ag65
ag67
ag120
ag70
ag71
ag72
ag74
ag75
ag93
ag77
ag121
ag78
ag80
ag81
ag83
ag125
ag84
ag85
aa(lp189
g25
ag27
ag105
ag29
ag44
ag45
ag47
ag57
ag114
ag68
ag69
ag73
ag82
aa(lp190
g6
ag96
ag7
ag9
ag99
ag19
ag100
ag104
ag107
ag32
ag89
ag40
ag41
ag42
ag91
ag48
ag50
ag51
ag53
ag115
ag60
ag63
ag64
ag66
ag76
ag122
ag79
ag123
ag124
ag126
ag86
aaa(lp191
(lp192
g3
ag4
ag5
ag6
ag96
ag7
ag8
ag9
ag11
ag14
ag99
ag15
ag16
ag17
ag18
ag101
ag20
ag88
ag102
ag22
ag104
ag23
ag24
ag26
ag27
ag105
ag29
ag107
ag31
ag33
ag34
ag89
ag35
ag36
ag37
ag40
ag90
ag41
ag42
ag108
ag91
ag45
ag47
ag48
ag109
ag110
ag50
ag51
ag112
ag52
ag54
ag56
ag57
ag114
ag58
ag59
ag118
ag64
ag65
ag66
ag67
ag120
ag69
ag70
ag71
ag72
ag73
ag74
ag75
ag76
ag121
ag122
ag78
ag79
ag80
ag123
ag81
ag124
ag83
ag125
ag84
ag126
ag86
aa(lp193
g97
ag12
ag13
ag98
ag28
ag106
ag30
ag39
ag46
ag49
ag113
ag116
ag60
ag117
ag77
ag85
aa(lp194
g95
ag10
ag19
ag100
ag21
ag103
ag25
ag32
ag38
ag43
ag44
ag111
ag92
ag53
ag55
ag115
ag61
ag62
ag119
ag63
ag68
ag93
ag82
aaa(lp195
(lp196
g95
ag4
ag5
ag6
ag96
ag7
ag8
ag9
ag97
ag10
ag12
ag13
ag14
ag98
ag15
ag16
ag17
ag18
ag19
ag100
ag101
ag20
ag88
ag102
ag103
ag104
ag23
ag24
ag28
ag106
ag30
ag32
ag33
ag34
ag35
ag37
ag39
ag40
ag41
ag42
ag108
ag46
ag47
ag48
ag49
ag109
ag111
ag92
ag112
ag52
ag113
ag54
ag55
ag56
ag58
ag59
ag116
ag117
ag118
ag62
ag119
ag64
ag66
ag67
ag70
ag72
ag74
ag76
ag93
ag77
ag122
ag78
ag79
ag80
ag83
ag125
ag84
ag85
ag86
aa(lp197
g99
ag107
ag31
ag89
ag36
ag90
ag91
ag50
ag51
ag53
ag120
ag75
ag123
ag124
ag126
aa(lp198
g3
ag11
ag21
ag22
ag25
ag26
ag27
ag105
ag29
ag38
ag43
ag44
ag45
ag110
ag57
ag114
ag115
ag60
ag61
ag63
ag65
ag68
ag69
ag71
ag73
ag121
ag81
ag82
aaa(lp199
(lp200
g3
ag4
ag5
ag6
ag7
ag8
ag9
ag97
ag11
ag14
ag98
ag99
ag15
ag16
ag17
ag19
ag100
ag101
ag20
ag21
ag88
ag22
ag103
ag23
ag24
ag26
ag27
ag105
ag29
ag106
ag107
ag31
ag33
ag89
ag35
ag36
ag37
ag40
ag90
ag41
ag42
ag43
ag108
ag91
ag45
ag47
ag48
ag109
ag111
ag92
ag50
ag51
ag112
ag52
ag113
ag53
ag54
ag55
ag57
ag114
ag58
ag116
ag60
ag117
ag118
ag61
ag62
ag119
ag63
ag65
ag66
ag67
ag120
ag69
ag70
ag71
ag73
ag74
ag75
ag93
ag122
ag78
ag80
ag123
ag81
ag124
ag83
ag125
ag84
ag126
ag86
aa(lp201
g95
ag12
ag13
ag102
ag28
ag30
ag39
ag46
ag49
ag72
ag76
ag77
ag79
ag85
aa(lp202
g96
ag10
ag18
ag104
ag25
ag32
ag34
ag38
ag44
ag110
ag56
ag115
ag59
ag64
ag68
ag121
ag82
aaa.